; ModuleID = '46/773.c'
source_filename = "46/773.c"
target datalayout = "e-m:e-p270:32:32-p271:32:32-p272:64:64-i64:64-f80:128-n8:16:32:64-S128"
target triple = "x86_64-pc-linux-gnu"

@.str = private unnamed_addr constant [6 x i8] c"%d %d\00", align 1
@.str.1 = private unnamed_addr constant [3 x i8] c"%d\00", align 1
@.str.2 = private unnamed_addr constant [4 x i8] c"%d\0A\00", align 1

; Function Attrs: noinline nounwind uwtable
define dso_local i32 @main() #0 {
  %1 = alloca i32, align 4
  %2 = alloca i32, align 4
  %3 = alloca i32, align 4
  %4 = alloca i32, align 4
  %5 = alloca i8, align 1
  %6 = alloca i32, align 4
  %7 = alloca i32, align 4
  %8 = alloca i32, align 4
  %9 = alloca i32, align 4
  %10 = alloca [101 x [101 x i32]], align 16
  store i32 0, i32* %1, align 4
  %11 = call i32 (i8*, ...) @__isoc99_scanf(i8* getelementptr inbounds ([6 x i8], [6 x i8]* @.str, i64 0, i64 0), i32* %7, i32* %9)
  store i32 0, i32* %3, align 4
  br label %12

12:                                               ; preds = %33, %0
  %13 = load i32, i32* %3, align 4
  %14 = load i32, i32* %7, align 4
  %15 = icmp slt i32 %13, %14
  br i1 %15, label %16, label %36

16:                                               ; preds = %12
  store i32 0, i32* %4, align 4
  br label %17

17:                                               ; preds = %29, %16
  %18 = load i32, i32* %4, align 4
  %19 = load i32, i32* %9, align 4
  %20 = icmp slt i32 %18, %19
  br i1 %20, label %21, label %32

21:                                               ; preds = %17
  %22 = load i32, i32* %3, align 4
  %23 = sext i32 %22 to i64
  %24 = getelementptr inbounds [101 x [101 x i32]], [101 x [101 x i32]]* %10, i64 0, i64 %23
  %25 = load i32, i32* %4, align 4
  %26 = sext i32 %25 to i64
  %27 = getelementptr inbounds [101 x i32], [101 x i32]* %24, i64 0, i64 %26
  %28 = call i32 (i8*, ...) @__isoc99_scanf(i8* getelementptr inbounds ([3 x i8], [3 x i8]* @.str.1, i64 0, i64 0), i32* %27)
  br label %29

29:                                               ; preds = %21
  %30 = load i32, i32* %4, align 4
  %31 = add nsw i32 %30, 1
  store i32 %31, i32* %4, align 4
  br label %17

32:                                               ; preds = %17
  br label %33

33:                                               ; preds = %32
  %34 = load i32, i32* %3, align 4
  %35 = add nsw i32 %34, 1
  store i32 %35, i32* %3, align 4
  br label %12

36:                                               ; preds = %12
  store i32 0, i32* %3, align 4
  store i32 -1, i32* %4, align 4
  store i8 114, i8* %5, align 1
  %37 = load i32, i32* %7, align 4
  %38 = load i32, i32* %9, align 4
  %39 = mul nsw i32 %37, %38
  store i32 %39, i32* %2, align 4
  store i32 0, i32* %6, align 4
  store i32 0, i32* %8, align 4
  %40 = load i32, i32* %7, align 4
  %41 = sub nsw i32 %40, 1
  store i32 %41, i32* %7, align 4
  %42 = load i32, i32* %9, align 4
  %43 = sub nsw i32 %42, 1
  store i32 %43, i32* %9, align 4
  br label %44

44:                                               ; preds = %90, %36
  %45 = load i32, i32* %2, align 4
  %46 = icmp ne i32 %45, 0
  br i1 %46, label %47, label %101

47:                                               ; preds = %44
  %48 = load i8, i8* %5, align 1
  %49 = sext i8 %48 to i32
  switch i32 %49, label %90 [
    i32 108, label %50
    i32 114, label %60
    i32 117, label %70
    i32 100, label %80
  ]

50:                                               ; preds = %47
  %51 = load i32, i32* %4, align 4
  %52 = add nsw i32 %51, -1
  store i32 %52, i32* %4, align 4
  %53 = load i32, i32* %4, align 4
  %54 = load i32, i32* %8, align 4
  %55 = icmp eq i32 %53, %54
  br i1 %55, label %56, label %59

56:                                               ; preds = %50
  store i8 117, i8* %5, align 1
  %57 = load i32, i32* %7, align 4
  %58 = add nsw i32 %57, -1
  store i32 %58, i32* %7, align 4
  br label %59

59:                                               ; preds = %56, %50
  br label %90

60:                                               ; preds = %47
  %61 = load i32, i32* %4, align 4
  %62 = add nsw i32 %61, 1
  store i32 %62, i32* %4, align 4
  %63 = load i32, i32* %4, align 4
  %64 = load i32, i32* %9, align 4
  %65 = icmp eq i32 %63, %64
  br i1 %65, label %66, label %69

66:                                               ; preds = %60
  store i8 100, i8* %5, align 1
  %67 = load i32, i32* %6, align 4
  %68 = add nsw i32 %67, 1
  store i32 %68, i32* %6, align 4
  br label %69

69:                                               ; preds = %66, %60
  br label %90

70:                                               ; preds = %47
  %71 = load i32, i32* %3, align 4
  %72 = add nsw i32 %71, -1
  store i32 %72, i32* %3, align 4
  %73 = load i32, i32* %3, align 4
  %74 = load i32, i32* %6, align 4
  %75 = icmp eq i32 %73, %74
  br i1 %75, label %76, label %79

76:                                               ; preds = %70
  store i8 114, i8* %5, align 1
  %77 = load i32, i32* %8, align 4
  %78 = add nsw i32 %77, 1
  store i32 %78, i32* %8, align 4
  br label %79

79:                                               ; preds = %76, %70
  br label %90

80:                                               ; preds = %47
  %81 = load i32, i32* %3, align 4
  %82 = add nsw i32 %81, 1
  store i32 %82, i32* %3, align 4
  %83 = load i32, i32* %3, align 4
  %84 = load i32, i32* %7, align 4
  %85 = icmp eq i32 %83, %84
  br i1 %85, label %86, label %89

86:                                               ; preds = %80
  store i8 108, i8* %5, align 1
  %87 = load i32, i32* %9, align 4
  %88 = add nsw i32 %87, -1
  store i32 %88, i32* %9, align 4
  br label %89

89:                                               ; preds = %86, %80
  br label %90

90:                                               ; preds = %89, %47, %79, %69, %59
  %91 = load i32, i32* %3, align 4
  %92 = sext i32 %91 to i64
  %93 = getelementptr inbounds [101 x [101 x i32]], [101 x [101 x i32]]* %10, i64 0, i64 %92
  %94 = load i32, i32* %4, align 4
  %95 = sext i32 %94 to i64
  %96 = getelementptr inbounds [101 x i32], [101 x i32]* %93, i64 0, i64 %95
  %97 = load i32, i32* %96, align 4
  %98 = call i32 (i8*, ...) @printf(i8* getelementptr inbounds ([4 x i8], [4 x i8]* @.str.2, i64 0, i64 0), i32 %97)
  %99 = load i32, i32* %2, align 4
  %100 = add nsw i32 %99, -1
  store i32 %100, i32* %2, align 4
  br label %44

101:                                              ; preds = %44
  ret i32 0
}

declare dso_local i32 @__isoc99_scanf(i8*, ...) #1

declare dso_local i32 @printf(i8*, ...) #1


!llvm.module.flags = !{!0}
!llvm.ident = !{!1}

!0 = !{i32 1, !"wchar_size", i32 4}
!1 = !{!"clang version 10.0.0-4ubuntu1 "}
